target datalayout = "e-m:e-p270:32:32-p271:32:32-p272:64:64-i64:64-i128:128-f80:128-n8:16:32:64-S128"
target triple = "x86_64-pc-linux-gnu"

%struct._lv_draw_sw_mask_common_dsc_t = type { ptr, i32 }
%struct.lv_area_t = type { i32, i32, i32, i32 }
%struct._lv_draw_sw_mask_fade_param_t = type { %struct._lv_draw_sw_mask_common_dsc_t, %struct.anon.2 }
%struct.anon.2 = type { %struct.lv_area_t, i32, i32, i8, i8 }

; Function Attrs: inlinehint nounwind uwtable
define internal void @lv_area_copy(ptr noundef %0, ptr noundef %1) #3 {
  %3 = alloca ptr, align 8
  %4 = alloca ptr, align 8
  store ptr %0, ptr %3, align 8, !tbaa !3
  store ptr %1, ptr %4, align 8, !tbaa !3
  %5 = load ptr, ptr %4, align 8, !tbaa !3
  %6 = getelementptr inbounds nuw %struct.lv_area_t, ptr %5, i32 0, i32 0
  %7 = load i32, ptr %6, align 4, !tbaa !61
  %8 = load ptr, ptr %3, align 8, !tbaa !3
  %9 = getelementptr inbounds nuw %struct.lv_area_t, ptr %8, i32 0, i32 0
  store i32 %7, ptr %9, align 4, !tbaa !61
  %10 = load ptr, ptr %4, align 8, !tbaa !3
  %11 = getelementptr inbounds nuw %struct.lv_area_t, ptr %10, i32 0, i32 1
  %12 = load i32, ptr %11, align 4, !tbaa !62
  %13 = load ptr, ptr %3, align 8, !tbaa !3
  %14 = getelementptr inbounds nuw %struct.lv_area_t, ptr %13, i32 0, i32 1
  store i32 %12, ptr %14, align 4, !tbaa !62
  %15 = load ptr, ptr %4, align 8, !tbaa !3
  %16 = getelementptr inbounds nuw %struct.lv_area_t, ptr %15, i32 0, i32 2
  %17 = load i32, ptr %16, align 4, !tbaa !63
  %18 = load ptr, ptr %3, align 8, !tbaa !3
  %19 = getelementptr inbounds nuw %struct.lv_area_t, ptr %18, i32 0, i32 2
  store i32 %17, ptr %19, align 4, !tbaa !63
  %20 = load ptr, ptr %4, align 8, !tbaa !3
  %21 = getelementptr inbounds nuw %struct.lv_area_t, ptr %20, i32 0, i32 3
  %22 = load i32, ptr %21, align 4, !tbaa !64
  %23 = load ptr, ptr %3, align 8, !tbaa !3
  %24 = getelementptr inbounds nuw %struct.lv_area_t, ptr %23, i32 0, i32 3
  store i32 %22, ptr %24, align 4, !tbaa !64
  ret void
}

; Function Attrs: nounwind uwtable
define void @lv_draw_sw_mask_fade_init(ptr noundef %0, ptr noundef %1, i8 noundef zeroext %2, i32 noundef %3, i8 noundef zeroext %4, i32 noundef %5) #0 {
  %7 = alloca ptr, align 8
  %8 = alloca ptr, align 8
  %9 = alloca i8, align 1
  %10 = alloca i32, align 4
  %11 = alloca i8, align 1
  %12 = alloca i32, align 4
  store ptr %0, ptr %7, align 8, !tbaa !3
  store ptr %1, ptr %8, align 8, !tbaa !3
  store i8 %2, ptr %9, align 1, !tbaa !26
  store i32 %3, ptr %10, align 4, !tbaa !7
  store i8 %4, ptr %11, align 1, !tbaa !26
  store i32 %5, ptr %12, align 4, !tbaa !7
  %13 = load ptr, ptr %7, align 8, !tbaa !3
  %14 = getelementptr inbounds nuw %struct._lv_draw_sw_mask_fade_param_t, ptr %13, i32 0, i32 1
  %15 = getelementptr inbounds nuw %struct.anon.2, ptr %14, i32 0, i32 0
  %16 = load ptr, ptr %8, align 8, !tbaa !3
  call void @lv_area_copy(ptr noundef %15, ptr noundef %16)
  %17 = load i8, ptr %9, align 1, !tbaa !26
  %18 = load ptr, ptr %7, align 8, !tbaa !3
  %19 = getelementptr inbounds nuw %struct._lv_draw_sw_mask_fade_param_t, ptr %18, i32 0, i32 1
  %20 = getelementptr inbounds nuw %struct.anon.2, ptr %19, i32 0, i32 3
  store i8 %17, ptr %20, align 8, !tbaa !75
  %21 = load i8, ptr %11, align 1, !tbaa !26
  %22 = load ptr, ptr %7, align 8, !tbaa !3
  %23 = getelementptr inbounds nuw %struct._lv_draw_sw_mask_fade_param_t, ptr %22, i32 0, i32 1
  %24 = getelementptr inbounds nuw %struct.anon.2, ptr %23, i32 0, i32 4
  store i8 %21, ptr %24, align 1, !tbaa !78
  %25 = load i32, ptr %10, align 4, !tbaa !7
  %26 = load ptr, ptr %7, align 8, !tbaa !3
  %27 = getelementptr inbounds nuw %struct._lv_draw_sw_mask_fade_param_t, ptr %26, i32 0, i32 1
  %28 = getelementptr inbounds nuw %struct.anon.2, ptr %27, i32 0, i32 1
  store i32 %25, ptr %28, align 8, !tbaa !79
  %29 = load i32, ptr %12, align 4, !tbaa !7
  %30 = load ptr, ptr %7, align 8, !tbaa !3
  %31 = getelementptr inbounds nuw %struct._lv_draw_sw_mask_fade_param_t, ptr %30, i32 0, i32 1
  %32 = getelementptr inbounds nuw %struct.anon.2, ptr %31, i32 0, i32 2
  store i32 %29, ptr %32, align 4, !tbaa !80
  %33 = load ptr, ptr %7, align 8, !tbaa !3
  %34 = getelementptr inbounds nuw %struct._lv_draw_sw_mask_fade_param_t, ptr %33, i32 0, i32 0
  %35 = getelementptr inbounds nuw %struct._lv_draw_sw_mask_common_dsc_t, ptr %34, i32 0, i32 0
  store ptr @lv_draw_mask_fade, ptr %35, align 8, !tbaa !81
  %36 = load ptr, ptr %7, align 8, !tbaa !3
  %37 = getelementptr inbounds nuw %struct._lv_draw_sw_mask_fade_param_t, ptr %36, i32 0, i32 0
  %38 = getelementptr inbounds nuw %struct._lv_draw_sw_mask_common_dsc_t, ptr %37, i32 0, i32 1
  store i32 3, ptr %38, align 8, !tbaa !82
  ret void
}