; Function Attrs: mustprogress nofree norecurse nosync nounwind willreturn memory(argmem: readwrite) uwtable
define void @lv_draw_sw_mask_fade_init(ptr nocapture noundef writeonly %0, ptr nocapture noundef readonly %1, i8 noundef zeroext %2, i32 noundef %3, i8 noundef zeroext %4, i32 noundef %5) local_unnamed_addr #3 {
  %7 = getelementptr inbounds nuw i8, ptr %0, i64 16
  %8 = load i32, ptr %1, align 4, !tbaa !47
  store i32 %8, ptr %7, align 4, !tbaa !47
  %9 = getelementptr inbounds nuw i8, ptr %1, i64 4
  %10 = load i32, ptr %9, align 4, !tbaa !48
  %11 = getelementptr inbounds nuw i8, ptr %0, i64 20
  store i32 %10, ptr %11, align 4, !tbaa !48
  %12 = getelementptr inbounds nuw i8, ptr %1, i64 8
  %13 = load i32, ptr %12, align 4, !tbaa !49
  %14 = getelementptr inbounds nuw i8, ptr %0, i64 24
  store i32 %13, ptr %14, align 4, !tbaa !49
  %15 = getelementptr inbounds nuw i8, ptr %1, i64 12
  %16 = load i32, ptr %15, align 4, !tbaa !50
  %17 = getelementptr inbounds nuw i8, ptr %0, i64 28
  store i32 %16, ptr %17, align 4, !tbaa !50
  %18 = getelementptr inbounds nuw i8, ptr %0, i64 40
  store i8 %2, ptr %18, align 8, !tbaa !68
  %19 = getelementptr inbounds nuw i8, ptr %0, i64 41
  store i8 %4, ptr %19, align 1, !tbaa !71
  %20 = getelementptr inbounds nuw i8, ptr %0, i64 32
  store i32 %3, ptr %20, align 8, !tbaa !72
  %21 = getelementptr inbounds nuw i8, ptr %0, i64 36
  store i32 %5, ptr %21, align 4, !tbaa !73
  store ptr @lv_draw_mask_fade, ptr %0, align 8, !tbaa !74
  %22 = getelementptr inbounds nuw i8, ptr %0, i64 8
  store i32 3, ptr %22, align 8, !tbaa !75
  ret void
}